; Function Attrs: nounwind uwtable
define noalias noundef ptr @Bac_NtkTransformToPtrBoxes(ptr noundef readonly captures(none) %0) local_unnamed_addr #0 {
  %2 = getelementptr i8, ptr %0, i64 84
  %.val.i = load i32, ptr %2, align 4, !tbaa !84
  %3 = icmp sgt i32 %.val.i, 0
  br i1 %3, label %.lr.ph.i.i, label %Bac_NtkBoxNum.exit

.lr.ph.i.i:                                       ; preds = %1
  %4 = getelementptr inbounds nuw i8, ptr %0, i64 88
  %5 = load ptr, ptr %4, align 8, !tbaa !85
  %wide.trip.count.i.i = zext nneg i32 %.val.i to i64
  br label %6

6:                                                ; preds = %6, %.lr.ph.i.i
  %indvars.iv.i.i = phi i64 [ 0, %.lr.ph.i.i ], [ %indvars.iv.next.i.i, %6 ]
  %.09.i.i = phi i32 [ 0, %.lr.ph.i.i ], [ %11, %6 ]
  %7 = getelementptr inbounds nuw i8, ptr %5, i64 %indvars.iv.i.i
  %8 = load i8, ptr %7, align 1, !tbaa !27
  %9 = icmp slt i8 %8, 10
  %10 = zext i1 %9 to i32
  %11 = add nuw nsw i32 %.09.i.i, %10
  %indvars.iv.next.i.i = add nuw nsw i64 %indvars.iv.i.i, 1
  %exitcond.not.i.i = icmp eq i64 %indvars.iv.next.i.i, %wide.trip.count.i.i
  br i1 %exitcond.not.i.i, label %Bac_NtkBoxNum.exit, label %6, !llvm.loop !107

Bac_NtkBoxNum.exit:                               ; preds = %6, %1
  %.0.lcssa.i.i = phi i32 [ 0, %1 ], [ %11, %6 ]
  %12 = sub nsw i32 %.val.i, %.0.lcssa.i.i
  %13 = tail call noalias dereferenceable_or_null(16) ptr @malloc(i64 noundef 16) #20
  %14 = getelementptr inbounds nuw i8, ptr %13, i64 4
  store i32 0, ptr %14, align 4, !tbaa !35
  store i32 %12, ptr %13, align 8, !tbaa !36
  %.not.i = icmp eq i32 %.val.i, %.0.lcssa.i.i
  br i1 %.not.i, label %Vec_PtrAllocExact.exit, label %15

15:                                               ; preds = %Bac_NtkBoxNum.exit
  %16 = sext i32 %12 to i64
  %17 = shl nsw i64 %16, 3
  %18 = tail call noalias ptr @malloc(i64 noundef %17) #20
  br label %Vec_PtrAllocExact.exit

Vec_PtrAllocExact.exit:                           ; preds = %Bac_NtkBoxNum.exit, %15
  %19 = phi ptr [ %18, %15 ], [ null, %Bac_NtkBoxNum.exit ]
  %20 = getelementptr inbounds nuw i8, ptr %13, i64 8
  store ptr %19, ptr %20, align 8, !tbaa !32
  br i1 %3, label %.lr.ph, label %._crit_edge

.lr.ph:                                           ; preds = %Vec_PtrAllocExact.exit
  %21 = getelementptr i8, ptr %0, i64 88
  br label %22

22:                                               ; preds = %.lr.ph, %59
  %.val13 = phi i32 [ %.val.i, %.lr.ph ], [ %.val, %59 ]
  %23 = phi i32 [ %12, %.lr.ph ], [ %60, %59 ]
  %24 = phi i32 [ 0, %.lr.ph ], [ %61, %59 ]
  %indvars.iv = phi i64 [ 0, %.lr.ph ], [ %indvars.iv.next, %59 ]
  %.val9 = load ptr, ptr %21, align 8, !tbaa !85
  %25 = getelementptr inbounds nuw i8, ptr %.val9, i64 %indvars.iv
  %26 = load i8, ptr %25, align 1, !tbaa !27
  %27 = lshr i8 %26, 1
  %28 = add nsw i8 %27, -73
  %29 = icmp ult i8 %28, -68
  br i1 %29, label %59, label %30

30:                                               ; preds = %22
  %31 = trunc nuw nsw i64 %indvars.iv to i32
  %32 = tail call ptr @Bac_NtkTransformToPtrBox(ptr noundef nonnull %0, i32 noundef %31)
  %33 = icmp eq i32 %24, %23
  br i1 %33, label %34, label %.Vec_PtrGrow.exit11_crit_edge.i

.Vec_PtrGrow.exit11_crit_edge.i:                  ; preds = %30
  %.pre.i = load ptr, ptr %20, align 8, !tbaa !32
  br label %Vec_PtrPush.exit

34:                                               ; preds = %30
  %35 = icmp slt i32 %23, 16
  br i1 %35, label %36, label %43

36:                                               ; preds = %34
  %37 = load ptr, ptr %20, align 8, !tbaa !32
  %.not9.i.i = icmp eq ptr %37, null
  br i1 %.not9.i.i, label %40, label %38

38:                                               ; preds = %36
  %39 = tail call dereferenceable_or_null(128) ptr @realloc(ptr noundef nonnull %37, i64 noundef 128) #21
  br label %Vec_PtrGrow.exit.i

40:                                               ; preds = %36
  %41 = tail call noalias dereferenceable_or_null(128) ptr @malloc(i64 noundef 128) #20
  br label %Vec_PtrGrow.exit.i

Vec_PtrGrow.exit.i:                               ; preds = %40, %38
  %42 = phi ptr [ %39, %38 ], [ %41, %40 ]
  store ptr %42, ptr %20, align 8, !tbaa !32
  store i32 16, ptr %13, align 8, !tbaa !36
  br label %Vec_PtrPush.exit

43:                                               ; preds = %34
  %44 = shl nuw nsw i32 %23, 1
  %45 = load ptr, ptr %20, align 8, !tbaa !32
  %.not9.i10.i = icmp eq ptr %45, null
  %46 = zext nneg i32 %44 to i64
  %47 = shl nuw nsw i64 %46, 3
  br i1 %.not9.i10.i, label %50, label %48

48:                                               ; preds = %43
  %49 = tail call ptr @realloc(ptr noundef nonnull %45, i64 noundef %47) #21
  br label %52

50:                                               ; preds = %43
  %51 = tail call noalias ptr @malloc(i64 noundef %47) #20
  br label %52

52:                                               ; preds = %50, %48
  %53 = phi ptr [ %49, %48 ], [ %51, %50 ]
  store ptr %53, ptr %20, align 8, !tbaa !32
  store i32 %44, ptr %13, align 8, !tbaa !36
  br label %Vec_PtrPush.exit

Vec_PtrPush.exit:                                 ; preds = %.Vec_PtrGrow.exit11_crit_edge.i, %Vec_PtrGrow.exit.i, %52
  %54 = phi i32 [ %23, %.Vec_PtrGrow.exit11_crit_edge.i ], [ %44, %52 ], [ 16, %Vec_PtrGrow.exit.i ]
  %55 = phi ptr [ %.pre.i, %.Vec_PtrGrow.exit11_crit_edge.i ], [ %53, %52 ], [ %42, %Vec_PtrGrow.exit.i ]
  %56 = add nsw i32 %24, 1
  store i32 %56, ptr %14, align 4, !tbaa !35
  %57 = sext i32 %24 to i64
  %58 = getelementptr inbounds ptr, ptr %55, i64 %57
  store ptr %32, ptr %58, align 8, !tbaa !34
  %.val.pre = load i32, ptr %2, align 4, !tbaa !84
  br label %59

59:                                               ; preds = %Vec_PtrPush.exit, %22
  %.val = phi i32 [ %.val.pre, %Vec_PtrPush.exit ], [ %.val13, %22 ]
  %60 = phi i32 [ %54, %Vec_PtrPush.exit ], [ %23, %22 ]
  %61 = phi i32 [ %56, %Vec_PtrPush.exit ], [ %24, %22 ]
  %indvars.iv.next = add nuw nsw i64 %indvars.iv, 1
  %62 = sext i32 %.val to i64
  %63 = icmp slt i64 %indvars.iv.next, %62
  br i1 %63, label %22, label %._crit_edge, !llvm.loop !108

._crit_edge:                                      ; preds = %59, %Vec_PtrAllocExact.exit
  ret ptr %13
}